; Function Attrs: mustprogress uwtable
define void @_Z7pr_dvecP8_IO_FILEiPKcPKdib(ptr noundef %0, i32 noundef %1, ptr noundef %2, ptr noundef %3, i32 noundef %4, i1 noundef zeroext %5) local_unnamed_addr #0 {
  %7 = tail call noundef zeroext i1 @_Z9availableP8_IO_FILEPKviPKc(ptr noundef %0, ptr noundef %3, i32 noundef %1, ptr noundef %2)
  br i1 %7, label %8, label %_ZL15printRealVectorIdEvP8_IO_FILEiPKcPKT_ib.exit

8:                                                ; preds = %6
  %9 = tail call noundef i32 @_Z10pr_title_nP8_IO_FILEiPKci(ptr noundef %0, i32 noundef %1, ptr noundef %2, i32 noundef %4)
  %10 = icmp sgt i32 %4, 0
  br i1 %10, label %.lr.ph.i, label %_ZL15printRealVectorIdEvP8_IO_FILEiPKcPKT_ib.exit

.lr.ph.i:                                         ; preds = %8
  %wide.trip.count24.i = zext nneg i32 %4 to i64
  br i1 %5, label %.lr.ph.split.us.i, label %.lr.ph.split.i

.lr.ph.split.us.i:                                ; preds = %.lr.ph.i, %.lr.ph.split.us.i
  %indvars.iv21.i = phi i64 [ %indvars.iv.next22.i, %.lr.ph.split.us.i ], [ 0, %.lr.ph.i ]
  %11 = tail call noundef i32 @_Z9pr_indentP8_IO_FILEi(ptr noundef %0, i32 noundef %9)
  %12 = getelementptr inbounds double, ptr %3, i64 %indvars.iv21.i
  %13 = load double, ptr %12, align 8
  %14 = trunc nuw nsw i64 %indvars.iv21.i to i32
  %15 = tail call i32 (ptr, ptr, ...) @fprintf(ptr noundef %0, ptr noundef nonnull @.str.6, ptr noundef %2, i32 noundef %14, double noundef %13) #6
  %indvars.iv.next22.i = add nuw nsw i64 %indvars.iv21.i, 1
  %exitcond25.not.i = icmp eq i64 %indvars.iv.next22.i, %wide.trip.count24.i
  br i1 %exitcond25.not.i, label %_ZL15printRealVectorIdEvP8_IO_FILEiPKcPKT_ib.exit, label %.lr.ph.split.us.i, !llvm.loop !13

.lr.ph.split.i:                                   ; preds = %.lr.ph.i, %.lr.ph.split.i
  %indvars.iv.i = phi i64 [ %indvars.iv.next.i, %.lr.ph.split.i ], [ 0, %.lr.ph.i ]
  %16 = tail call noundef i32 @_Z9pr_indentP8_IO_FILEi(ptr noundef %0, i32 noundef %9)
  %17 = getelementptr inbounds double, ptr %3, i64 %indvars.iv.i
  %18 = load double, ptr %17, align 8
  %19 = tail call i32 (ptr, ptr, ...) @fprintf(ptr noundef %0, ptr noundef nonnull @.str.6, ptr noundef %2, i32 noundef -1, double noundef %18) #6
  %indvars.iv.next.i = add nuw nsw i64 %indvars.iv.i, 1
  %exitcond.not.i = icmp eq i64 %indvars.iv.next.i, %wide.trip.count24.i
  br i1 %exitcond.not.i, label %_ZL15printRealVectorIdEvP8_IO_FILEiPKcPKT_ib.exit, label %.lr.ph.split.i, !llvm.loop !13

_ZL15printRealVectorIdEvP8_IO_FILEiPKcPKT_ib.exit: ; preds = %.lr.ph.split.i, %.lr.ph.split.us.i, %6, %8
  ret void
}